; Function Attrs: nounwind uwtable
define dso_local i64 @pg_lsn_out(ptr noundef readonly captures(none) %0) local_unnamed_addr #4 {
  %2 = alloca [18 x i8], align 16
  %3 = getelementptr inbounds nuw i8, ptr %0, i64 32
  %4 = load i64, ptr %3, align 8
  call void @llvm.lifetime.start.p0(i64 18, ptr nonnull %2) #13
  %5 = lshr i64 %4, 32
  %6 = trunc nuw i64 %5 to i32
  %7 = trunc i64 %4 to i32
  %8 = call i32 (ptr, i64, ptr, ...) @pg_snprintf(ptr noundef nonnull %2, i64 noundef 18, ptr noundef nonnull @.str.4, i32 noundef %6, i32 noundef %7) #13
  %9 = call ptr @pstrdup(ptr noundef nonnull %2) #13
  %10 = ptrtoint ptr %9 to i64
  call void @llvm.lifetime.end.p0(i64 18, ptr nonnull %2) #13
  ret i64 %10
}